; Function Attrs: nofree norecurse nosync nounwind memory(argmem: read) uwtable
define range(i64 -1, 1) i64 @gf_eq(ptr noundef readonly captures(none) %0, ptr noundef readonly captures(none) %1) local_unnamed_addr #2 {
  %3 = alloca [1 x %struct.gf_s], align 16
  call void @llvm.lifetime.start.p0(i64 64, ptr nonnull %3) #6
  br label %4

4:                                                ; preds = %4, %2
  %indvars.iv.i = phi i64 [ 0, %2 ], [ %indvars.iv.next.i, %4 ]
  %5 = getelementptr inbounds nuw [8 x i64], ptr %0, i64 0, i64 %indvars.iv.i
  %6 = load i64, ptr %5, align 8, !tbaa !7
  %7 = getelementptr inbounds nuw [8 x i64], ptr %1, i64 0, i64 %indvars.iv.i
  %8 = load i64, ptr %7, align 8, !tbaa !7
  %9 = icmp eq i64 %indvars.iv.i, 4
  %10 = select i1 %9, i64 144115188075855868, i64 144115188075855870
  %11 = add i64 %10, %6
  %12 = sub i64 %11, %8
  %13 = getelementptr inbounds nuw [8 x i64], ptr %3, i64 0, i64 %indvars.iv.i
  store i64 %12, ptr %13, align 8, !tbaa !7
  %indvars.iv.next.i = add nuw nsw i64 %indvars.iv.i, 1
  %exitcond.not.i = icmp eq i64 %indvars.iv.next.i, 8
  br i1 %exitcond.not.i, label %14, label %4, !llvm.loop !17

14:                                               ; preds = %4
  %15 = getelementptr inbounds nuw i8, ptr %3, i64 56
  %16 = load i64, ptr %15, align 8, !tbaa !7
  %17 = lshr i64 %16, 56
  %18 = getelementptr inbounds nuw i8, ptr %3, i64 32
  %19 = load i64, ptr %18, align 16, !tbaa !7
  %20 = add i64 %19, %17
  store i64 %20, ptr %18, align 16, !tbaa !7
  br label %21

21:                                               ; preds = %21, %14
  %22 = phi i64 [ %16, %14 ], [ %26, %21 ]
  %indvars.iv10.i = phi i64 [ 7, %14 ], [ %indvars.iv.next11.i, %21 ]
  %23 = getelementptr inbounds nuw [8 x i64], ptr %3, i64 0, i64 %indvars.iv10.i
  %24 = and i64 %22, 72057594037927935
  %indvars.iv.next11.i = add nsw i64 %indvars.iv10.i, -1
  %25 = getelementptr inbounds nuw [8 x i64], ptr %3, i64 0, i64 %indvars.iv.next11.i
  %26 = load i64, ptr %25, align 8, !tbaa !7
  %27 = lshr i64 %26, 56
  %28 = add nuw nsw i64 %27, %24
  store i64 %28, ptr %23, align 8, !tbaa !7
  %.not.i.i.i = icmp eq i64 %indvars.iv.next11.i, 0
  br i1 %.not.i.i.i, label %gf_sub_RAW.exit.i, label %21, !llvm.loop !9

gf_sub_RAW.exit.i:                                ; preds = %21
  %29 = load i64, ptr %3, align 16, !tbaa !7
  %30 = and i64 %29, 72057594037927935
  %31 = add nuw nsw i64 %30, %17
  store i64 %31, ptr %3, align 16, !tbaa !7
  %32 = load i64, ptr %15, align 8, !tbaa !7
  %33 = lshr i64 %32, 56
  %34 = load i64, ptr %18, align 16, !tbaa !7
  %35 = add i64 %34, %33
  store i64 %35, ptr %18, align 16, !tbaa !7
  br label %36

36:                                               ; preds = %36, %gf_sub_RAW.exit.i
  %37 = phi i64 [ %32, %gf_sub_RAW.exit.i ], [ %41, %36 ]
  %indvars.iv13.i = phi i64 [ 7, %gf_sub_RAW.exit.i ], [ %indvars.iv.next14.i, %36 ]
  %38 = getelementptr inbounds nuw [8 x i64], ptr %3, i64 0, i64 %indvars.iv13.i
  %39 = and i64 %37, 72057594037927935
  %indvars.iv.next14.i = add nsw i64 %indvars.iv13.i, -1
  %40 = getelementptr inbounds nuw [8 x i64], ptr %3, i64 0, i64 %indvars.iv.next14.i
  %41 = load i64, ptr %40, align 8, !tbaa !7
  %42 = lshr i64 %41, 56
  %43 = add nuw nsw i64 %42, %39
  store i64 %43, ptr %38, align 8, !tbaa !7
  %.not.i.i = icmp eq i64 %indvars.iv.next14.i, 0
  br i1 %.not.i.i, label %gf_sub.exit, label %36, !llvm.loop !9

gf_sub.exit:                                      ; preds = %36
  %44 = and i64 %31, 72057594037927935
  %45 = add nuw nsw i64 %44, %33
  store i64 %45, ptr %3, align 16, !tbaa !7
  %46 = load i64, ptr %15, align 8, !tbaa !7
  %47 = lshr i64 %46, 56
  %48 = load i64, ptr %18, align 16, !tbaa !7
  %49 = add i64 %48, %47
  store i64 %49, ptr %18, align 16, !tbaa !7
  br label %50

50:                                               ; preds = %50, %gf_sub.exit
  %51 = phi i64 [ %46, %gf_sub.exit ], [ %55, %50 ]
  %indvars.iv.i8 = phi i64 [ 7, %gf_sub.exit ], [ %indvars.iv.next.i9, %50 ]
  %52 = getelementptr inbounds nuw [8 x i64], ptr %3, i64 0, i64 %indvars.iv.i8
  %53 = and i64 %51, 72057594037927935
  %indvars.iv.next.i9 = add nsw i64 %indvars.iv.i8, -1
  %54 = getelementptr inbounds nuw [8 x i64], ptr %3, i64 0, i64 %indvars.iv.next.i9
  %55 = load i64, ptr %54, align 8, !tbaa !7
  %56 = lshr i64 %55, 56
  %57 = add nuw nsw i64 %56, %53
  store i64 %57, ptr %52, align 8, !tbaa !7
  %.not.i.i10 = icmp eq i64 %indvars.iv.next.i9, 0
  br i1 %.not.i.i10, label %gf_weak_reduce.exit.i, label %50, !llvm.loop !9

gf_weak_reduce.exit.i:                            ; preds = %50
  %58 = and i64 %45, 72057594037927935
  %59 = add nuw nsw i64 %47, %58
  store i64 %59, ptr %3, align 16, !tbaa !7
  br label %60

60:                                               ; preds = %60, %gf_weak_reduce.exit.i
  %indvars.iv32.i = phi i64 [ 0, %gf_weak_reduce.exit.i ], [ %indvars.iv.next33.i, %60 ]
  %.02327.i = phi i128 [ 0, %gf_weak_reduce.exit.i ], [ %71, %60 ]
  %61 = getelementptr inbounds nuw [8 x i64], ptr %3, i64 0, i64 %indvars.iv32.i
  %62 = load i64, ptr %61, align 8, !tbaa !7
  %63 = zext i64 %62 to i128
  %64 = add nsw i128 %.02327.i, %63
  %65 = getelementptr inbounds nuw [8 x i64], ptr @MODULUS, i64 0, i64 %indvars.iv32.i
  %66 = load i64, ptr %65, align 8, !tbaa !7
  %67 = zext i64 %66 to i128
  %68 = sub nsw i128 %64, %67
  %69 = trunc i128 %68 to i64
  %70 = and i64 %69, 72057594037927935
  store i64 %70, ptr %61, align 8, !tbaa !7
  %71 = ashr i128 %68, 56
  %indvars.iv.next33.i = add nuw nsw i64 %indvars.iv32.i, 1
  %exitcond.not.i11 = icmp eq i64 %indvars.iv.next33.i, 8
  br i1 %exitcond.not.i11, label %72, label %60, !llvm.loop !11

72:                                               ; preds = %60
  %73 = trunc nsw i128 %71 to i64
  br label %74

74:                                               ; preds = %74, %72
  %indvars.iv35.i = phi i64 [ 0, %72 ], [ %indvars.iv.next36.i, %74 ]
  %.02229.i = phi i128 [ 0, %72 ], [ %86, %74 ]
  %75 = getelementptr inbounds nuw [8 x i64], ptr %3, i64 0, i64 %indvars.iv35.i
  %76 = load i64, ptr %75, align 8, !tbaa !7
  %77 = zext i64 %76 to i128
  %78 = add nuw nsw i128 %.02229.i, %77
  %79 = getelementptr inbounds nuw [8 x i64], ptr @MODULUS, i64 0, i64 %indvars.iv35.i
  %80 = load i64, ptr %79, align 8, !tbaa !7
  %81 = and i64 %80, %73
  %82 = zext i64 %81 to i128
  %83 = add nuw nsw i128 %78, %82
  %84 = trunc i128 %83 to i64
  %85 = and i64 %84, 72057594037927935
  store i64 %85, ptr %75, align 8, !tbaa !7
  %86 = lshr i128 %83, 56
  %indvars.iv.next36.i = add nuw nsw i64 %indvars.iv35.i, 1
  %exitcond38.not.i = icmp eq i64 %indvars.iv.next36.i, 8
  br i1 %exitcond38.not.i, label %gf_strong_reduce.exit, label %74, !llvm.loop !12

gf_strong_reduce.exit:                            ; preds = %74, %gf_strong_reduce.exit
  %indvars.iv = phi i64 [ %indvars.iv.next, %gf_strong_reduce.exit ], [ 0, %74 ]
  %.0613 = phi i64 [ %89, %gf_strong_reduce.exit ], [ 0, %74 ]
  %87 = getelementptr inbounds nuw [8 x i64], ptr %3, i64 0, i64 %indvars.iv
  %88 = load i64, ptr %87, align 8, !tbaa !7
  %89 = or i64 %88, %.0613
  %indvars.iv.next = add nuw nsw i64 %indvars.iv, 1
  %exitcond.not = icmp eq i64 %indvars.iv.next, 8
  br i1 %exitcond.not, label %90, label %gf_strong_reduce.exit, !llvm.loop !18

90:                                               ; preds = %gf_strong_reduce.exit
  %91 = icmp eq i64 %89, 0
  %.neg.i.i = sext i1 %91 to i64
  call void @llvm.lifetime.end.p0(i64 64, ptr nonnull %3) #6
  ret i64 %.neg.i.i
}